target datalayout = "e-m:e-p270:32:32-p271:32:32-p272:64:64-i64:64-i128:128-f80:128-n8:16:32:64-S128"
target triple = "x86_64-unknown-linux-gnu"

%struct.MACAddr = type { [6 x i8] }
%struct.of_dpa_flow = type { i32, i32, i32, i32, i64, %struct.of_dpa_flow_key, %struct.of_dpa_flow_key, %struct.of_dpa_flow_action, %struct.anon.13 }
%struct.of_dpa_flow_key = type { i32, i32, i32, %struct.anon, %struct.anon.0, %union.anon, i32 }
%struct.anon = type { i16, %struct.MACAddr, %struct.MACAddr, i16 }
%struct.anon.0 = type { i8, i8, i8, i8 }
%union.anon = type { %struct.anon.6 }
%struct.anon.6 = type { %struct.anon.7, i32, %struct.anon.9, %struct.anon.10 }
%struct.anon.7 = type { %struct.ipv6_addr, %struct.ipv6_addr }
%struct.ipv6_addr = type { %union.anon.8 }
%union.anon.8 = type { [4 x i32] }
%struct.anon.9 = type { i16, i16, i16 }
%struct.anon.10 = type { %struct.ipv6_addr, %struct.MACAddr, %struct.MACAddr }
%struct.of_dpa_flow_action = type { i32, %struct.anon.11, %struct.anon.12 }
%struct.anon.11 = type { i32, i32, i16 }
%struct.anon.12 = type { i16, i32, i8, i16 }
%struct.anon.13 = type { i64, i64, i64, i64, i64 }

; Function Attrs: nounwind sspstrong uwtable
define internal i32 @ldl_he_p(ptr noundef %ptr) #0 {
entry:
  %ptr.addr = alloca ptr, align 8
  %r = alloca i32, align 4
  store ptr %ptr, ptr %ptr.addr, align 8
  %0 = load ptr, ptr %ptr.addr, align 8
  call void @llvm.memcpy.p0.p0.i64(ptr align 4 %r, ptr align 1 %0, i64 4, i1 false)
  %1 = load i32, ptr %r, align 4
  ret i32 %1
}

; Function Attrs: nounwind sspstrong uwtable
define internal i32 @lduw_he_p(ptr noundef %ptr) #0 {
entry:
  %ptr.addr = alloca ptr, align 8
  %r = alloca i16, align 2
  store ptr %ptr, ptr %ptr.addr, align 8
  %0 = load ptr, ptr %ptr.addr, align 8
  call void @llvm.memcpy.p0.p0.i64(ptr align 2 %r, ptr align 1 %0, i64 2, i1 false)
  %1 = load i16, ptr %r, align 2
  %conv = zext i16 %1 to i32
  ret i32 %conv
}

; Function Attrs: nounwind sspstrong uwtable
define internal i32 @ldl_le_p(ptr noundef %ptr) #0 {
entry:
  %ptr.addr = alloca ptr, align 8
  store ptr %ptr, ptr %ptr.addr, align 8
  %0 = load ptr, ptr %ptr.addr, align 8
  %call = call i32 @ldl_he_p(ptr noundef %0)
  ret i32 %call
}

; Function Attrs: nounwind sspstrong uwtable
define internal i32 @lduw_le_p(ptr noundef %ptr) #0 {
entry:
  %ptr.addr = alloca ptr, align 8
  store ptr %ptr, ptr %ptr.addr, align 8
  %0 = load ptr, ptr %ptr.addr, align 8
  %call = call i32 @lduw_he_p(ptr noundef %0)
  %conv = trunc i32 %call to i16
  %conv1 = zext i16 %conv to i32
  ret i32 %conv1
}

; Function Attrs: nounwind sspstrong uwtable
define internal ptr @rocker_tlv_data(ptr noundef %tlv) #0 {
entry:
  %tlv.addr = alloca ptr, align 8
  store ptr %tlv, ptr %tlv.addr, align 8
  %0 = load ptr, ptr %tlv.addr, align 8
  %add.ptr = getelementptr i8, ptr %0, i64 8
  ret ptr %add.ptr
}

; Function Attrs: nounwind sspstrong uwtable
define internal i32 @rocker_tlv_get_le32(ptr noundef %tlv) #0 {
entry:
  %tlv.addr = alloca ptr, align 8
  store ptr %tlv, ptr %tlv.addr, align 8
  %0 = load ptr, ptr %tlv.addr, align 8
  %call = call ptr @rocker_tlv_data(ptr noundef %0)
  %call1 = call i32 @ldl_le_p(ptr noundef %call)
  ret i32 %call1
}

; Function Attrs: nounwind sspstrong uwtable
define internal zeroext i16 @rocker_tlv_get_le16(ptr noundef %tlv) #0 {
entry:
  %tlv.addr = alloca ptr, align 8
  store ptr %tlv, ptr %tlv.addr, align 8
  %0 = load ptr, ptr %tlv.addr, align 8
  %call = call ptr @rocker_tlv_data(ptr noundef %0)
  %call1 = call i32 @lduw_le_p(ptr noundef %call)
  %conv = trunc i32 %call1 to i16
  ret i16 %conv
}

; Function Attrs: nounwind sspstrong uwtable
define internal i32 @of_dpa_cmd_flow_add_mod(ptr noundef %of_dpa, ptr noundef %flow, ptr noundef %flow_tlvs) #0 {
entry:
  %retval = alloca i32, align 4
  %of_dpa.addr = alloca ptr, align 8
  %flow.addr = alloca ptr, align 8
  %flow_tlvs.addr = alloca ptr, align 8
  %tbl = alloca i32, align 4
  %err = alloca i32, align 4
  store ptr %of_dpa, ptr %of_dpa.addr, align 8
  store ptr %flow, ptr %flow.addr, align 8
  store ptr %flow_tlvs, ptr %flow_tlvs.addr, align 8
  store i32 0, ptr %err, align 4
  %0 = load ptr, ptr %flow_tlvs.addr, align 8
  %arrayidx = getelementptr ptr, ptr %0, i64 1
  %1 = load ptr, ptr %arrayidx, align 8
  %tobool = icmp ne ptr %1, null
  br i1 %tobool, label %lor.lhs.false, label %if.then

lor.lhs.false:                                    ; preds = %entry
  %2 = load ptr, ptr %flow_tlvs.addr, align 8
  %arrayidx1 = getelementptr ptr, ptr %2, i64 2
  %3 = load ptr, ptr %arrayidx1, align 8
  %tobool2 = icmp ne ptr %3, null
  br i1 %tobool2, label %lor.lhs.false3, label %if.then

lor.lhs.false3:                                   ; preds = %lor.lhs.false
  %4 = load ptr, ptr %flow_tlvs.addr, align 8
  %arrayidx4 = getelementptr ptr, ptr %4, i64 3
  %5 = load ptr, ptr %arrayidx4, align 8
  %tobool5 = icmp ne ptr %5, null
  br i1 %tobool5, label %if.end, label %if.then

if.then:                                          ; preds = %lor.lhs.false3, %lor.lhs.false, %entry
  store i32 -22, ptr %retval, align 4
  br label %return

if.end:                                           ; preds = %lor.lhs.false3
  %6 = load ptr, ptr %flow_tlvs.addr, align 8
  %arrayidx6 = getelementptr ptr, ptr %6, i64 1
  %7 = load ptr, ptr %arrayidx6, align 8
  %call = call zeroext i16 @rocker_tlv_get_le16(ptr noundef %7)
  %conv = zext i16 %call to i32
  store i32 %conv, ptr %tbl, align 4
  %8 = load ptr, ptr %flow_tlvs.addr, align 8
  %arrayidx7 = getelementptr ptr, ptr %8, i64 2
  %9 = load ptr, ptr %arrayidx7, align 8
  %call8 = call i32 @rocker_tlv_get_le32(ptr noundef %9)
  %10 = load ptr, ptr %flow.addr, align 8
  %priority = getelementptr inbounds %struct.of_dpa_flow, ptr %10, i32 0, i32 1
  store i32 %call8, ptr %priority, align 4
  %11 = load ptr, ptr %flow_tlvs.addr, align 8
  %arrayidx9 = getelementptr ptr, ptr %11, i64 3
  %12 = load ptr, ptr %arrayidx9, align 8
  %call10 = call i32 @rocker_tlv_get_le32(ptr noundef %12)
  %13 = load ptr, ptr %flow.addr, align 8
  %hardtime = getelementptr inbounds %struct.of_dpa_flow, ptr %13, i32 0, i32 2
  store i32 %call10, ptr %hardtime, align 8
  %14 = load ptr, ptr %flow_tlvs.addr, align 8
  %arrayidx11 = getelementptr ptr, ptr %14, i64 4
  %15 = load ptr, ptr %arrayidx11, align 8
  %tobool12 = icmp ne ptr %15, null
  br i1 %tobool12, label %if.then13, label %if.end25

if.then13:                                        ; preds = %if.end
  %16 = load i32, ptr %tbl, align 4
  %cmp = icmp eq i32 %16, 0
  br i1 %cmp, label %if.then21, label %lor.lhs.false15

lor.lhs.false15:                                  ; preds = %if.then13
  %17 = load i32, ptr %tbl, align 4
  %cmp16 = icmp eq i32 %17, 10
  br i1 %cmp16, label %if.then21, label %lor.lhs.false18

lor.lhs.false18:                                  ; preds = %lor.lhs.false15
  %18 = load i32, ptr %tbl, align 4
  %cmp19 = icmp eq i32 %18, 20
  br i1 %cmp19, label %if.then21, label %if.end22

if.then21:                                        ; preds = %lor.lhs.false18, %lor.lhs.false15, %if.then13
  store i32 -22, ptr %retval, align 4
  br label %return

if.end22:                                         ; preds = %lor.lhs.false18
  %19 = load ptr, ptr %flow_tlvs.addr, align 8
  %arrayidx23 = getelementptr ptr, ptr %19, i64 4
  %20 = load ptr, ptr %arrayidx23, align 8
  %call24 = call i32 @rocker_tlv_get_le32(ptr noundef %20)
  %21 = load ptr, ptr %flow.addr, align 8
  %idletime = getelementptr inbounds %struct.of_dpa_flow, ptr %21, i32 0, i32 3
  store i32 %call24, ptr %idletime, align 4
  br label %if.end25

if.end25:                                         ; preds = %if.end22, %if.end
  %22 = load i32, ptr %tbl, align 4
  switch i32 %22, label %sw.epilog [
    i32 0, label %sw.bb
    i32 10, label %sw.bb27
    i32 20, label %sw.bb29
    i32 50, label %sw.bb31
    i32 30, label %sw.bb33
    i32 40, label %sw.bb35
    i32 60, label %sw.bb37
  ]

sw.bb:                                            ; preds = %if.end25
  %23 = load ptr, ptr %flow.addr, align 8
  %24 = load ptr, ptr %flow_tlvs.addr, align 8
  %call26 = call i32 @of_dpa_cmd_add_ig_port(ptr noundef %23, ptr noundef %24)
  store i32 %call26, ptr %err, align 4
  br label %sw.epilog

sw.bb27:                                          ; preds = %if.end25
  %25 = load ptr, ptr %flow.addr, align 8
  %26 = load ptr, ptr %flow_tlvs.addr, align 8
  %call28 = call i32 @of_dpa_cmd_add_vlan(ptr noundef %25, ptr noundef %26)
  store i32 %call28, ptr %err, align 4
  br label %sw.epilog

sw.bb29:                                          ; preds = %if.end25
  %27 = load ptr, ptr %flow.addr, align 8
  %28 = load ptr, ptr %flow_tlvs.addr, align 8
  %call30 = call i32 @of_dpa_cmd_add_term_mac(ptr noundef %27, ptr noundef %28)
  store i32 %call30, ptr %err, align 4
  br label %sw.epilog

sw.bb31:                                          ; preds = %if.end25
  %29 = load ptr, ptr %flow.addr, align 8
  %30 = load ptr, ptr %flow_tlvs.addr, align 8
  %call32 = call i32 @of_dpa_cmd_add_bridging(ptr noundef %29, ptr noundef %30)
  store i32 %call32, ptr %err, align 4
  br label %sw.epilog

sw.bb33:                                          ; preds = %if.end25
  %31 = load ptr, ptr %flow.addr, align 8
  %32 = load ptr, ptr %flow_tlvs.addr, align 8
  %call34 = call i32 @of_dpa_cmd_add_unicast_routing(ptr noundef %31, ptr noundef %32)
  store i32 %call34, ptr %err, align 4
  br label %sw.epilog

sw.bb35:                                          ; preds = %if.end25
  %33 = load ptr, ptr %flow.addr, align 8
  %34 = load ptr, ptr %flow_tlvs.addr, align 8
  %call36 = call i32 @of_dpa_cmd_add_multicast_routing(ptr noundef %33, ptr noundef %34)
  store i32 %call36, ptr %err, align 4
  br label %sw.epilog

sw.bb37:                                          ; preds = %if.end25
  %35 = load ptr, ptr %flow.addr, align 8
  %36 = load ptr, ptr %flow_tlvs.addr, align 8
  %call38 = call i32 @of_dpa_cmd_add_acl(ptr noundef %35, ptr noundef %36)
  store i32 %call38, ptr %err, align 4
  br label %sw.epilog

sw.epilog:                                        ; preds = %sw.bb37, %sw.bb35, %sw.bb33, %sw.bb31, %sw.bb29, %sw.bb27, %sw.bb, %if.end25
  %37 = load i32, ptr %err, align 4
  store i32 %37, ptr %retval, align 4
  br label %return

return:                                           ; preds = %sw.epilog, %if.then21, %if.then
  %38 = load i32, ptr %retval, align 4
  ret i32 %38
}