; Function Attrs: nounwind sspstrong uwtable
define internal fastcc range(i32 -22, 1) i32 @of_dpa_cmd_flow_add_mod(ptr noundef captures(none) %flow, ptr noundef nonnull readonly captures(none) %flow_tlvs) unnamed_addr #0 {
entry:
  %arrayidx = getelementptr i8, ptr %flow_tlvs, i64 8
  %0 = load ptr, ptr %arrayidx, align 8
  %tobool.not = icmp eq ptr %0, null
  br i1 %tobool.not, label %return, label %lor.lhs.false

lor.lhs.false:                                    ; preds = %entry
  %arrayidx1 = getelementptr i8, ptr %flow_tlvs, i64 16
  %1 = load ptr, ptr %arrayidx1, align 8
  %tobool2.not = icmp eq ptr %1, null
  br i1 %tobool2.not, label %return, label %lor.lhs.false3

lor.lhs.false3:                                   ; preds = %lor.lhs.false
  %arrayidx4 = getelementptr i8, ptr %flow_tlvs, i64 24
  %2 = load ptr, ptr %arrayidx4, align 8
  %tobool5.not = icmp eq ptr %2, null
  br i1 %tobool5.not, label %return, label %if.end

if.end:                                           ; preds = %lor.lhs.false3
  %3 = getelementptr i8, ptr %0, i64 8
  %.val = load i16, ptr %3, align 1
  %4 = getelementptr i8, ptr %1, i64 8
  %.val29 = load i32, ptr %4, align 1
  %priority = getelementptr inbounds nuw i8, ptr %flow, i64 4
  store i32 %.val29, ptr %priority, align 4
  %5 = load ptr, ptr %arrayidx4, align 8
  %6 = getelementptr i8, ptr %5, i64 8
  %.val30 = load i32, ptr %6, align 1
  %hardtime = getelementptr inbounds nuw i8, ptr %flow, i64 8
  store i32 %.val30, ptr %hardtime, align 8
  %arrayidx11 = getelementptr i8, ptr %flow_tlvs, i64 32
  %7 = load ptr, ptr %arrayidx11, align 8
  %tobool12.not = icmp eq ptr %7, null
  br i1 %tobool12.not, label %if.end25, label %if.then13

if.then13:                                        ; preds = %if.end
  switch i16 %.val, label %if.end22 [
    i16 20, label %return
    i16 10, label %return
    i16 0, label %return
  ]

if.end22:                                         ; preds = %if.then13
  %8 = getelementptr i8, ptr %7, i64 8
  %.val31 = load i32, ptr %8, align 1
  %idletime = getelementptr inbounds nuw i8, ptr %flow, i64 12
  store i32 %.val31, ptr %idletime, align 4
  br label %if.end25

if.end25:                                         ; preds = %if.end22, %if.end
  switch i16 %.val, label %return [
    i16 0, label %sw.bb
    i16 10, label %sw.bb27
    i16 20, label %sw.bb29
    i16 50, label %sw.bb31
    i16 30, label %sw.bb33
    i16 40, label %sw.bb35
    i16 60, label %sw.bb37
  ]

sw.bb:                                            ; preds = %if.end25
  %call26 = tail call fastcc i32 @of_dpa_cmd_add_ig_port(ptr noundef nonnull %flow, ptr noundef %flow_tlvs)
  br label %return

sw.bb27:                                          ; preds = %if.end25
  %call28 = tail call fastcc i32 @of_dpa_cmd_add_vlan(ptr noundef nonnull %flow, ptr noundef %flow_tlvs)
  br label %return

sw.bb29:                                          ; preds = %if.end25
  %call30 = tail call fastcc i32 @of_dpa_cmd_add_term_mac(ptr noundef nonnull %flow, ptr noundef %flow_tlvs)
  br label %return

sw.bb31:                                          ; preds = %if.end25
  %call32 = tail call fastcc i32 @of_dpa_cmd_add_bridging(ptr noundef nonnull %flow, ptr noundef %flow_tlvs)
  br label %return

sw.bb33:                                          ; preds = %if.end25
  %call34 = tail call fastcc i32 @of_dpa_cmd_add_unicast_routing(ptr noundef nonnull %flow, ptr noundef %flow_tlvs)
  br label %return

sw.bb35:                                          ; preds = %if.end25
  %call36 = tail call fastcc i32 @of_dpa_cmd_add_multicast_routing(ptr noundef nonnull %flow, ptr noundef %flow_tlvs)
  br label %return

sw.bb37:                                          ; preds = %if.end25
  %call38 = tail call fastcc i32 @of_dpa_cmd_add_acl(ptr noundef nonnull %flow, ptr noundef %flow_tlvs)
  br label %return

return:                                           ; preds = %if.end25, %sw.bb, %sw.bb27, %sw.bb29, %sw.bb31, %sw.bb33, %sw.bb35, %sw.bb37, %if.then13, %if.then13, %if.then13, %entry, %lor.lhs.false, %lor.lhs.false3
  %retval.0 = phi i32 [ -22, %lor.lhs.false3 ], [ -22, %lor.lhs.false ], [ -22, %entry ], [ -22, %if.then13 ], [ -22, %if.then13 ], [ -22, %if.then13 ], [ 0, %if.end25 ], [ %call38, %sw.bb37 ], [ %call36, %sw.bb35 ], [ %call34, %sw.bb33 ], [ %call32, %sw.bb31 ], [ %call30, %sw.bb29 ], [ %call28, %sw.bb27 ], [ %call26, %sw.bb ]
  ret i32 %retval.0
}